; Function Attrs: mustprogress uwtable
define noundef double @_ZN16checked_buffer_t8sgetrealEii(ptr noundef nonnull readonly align 8 captures(none) dereferenceable(48) %0, i32 noundef %1, i32 noundef %2) local_unnamed_addr #4 align 2 {
  %4 = getelementptr inbounds nuw i8, ptr %0, i64 16
  %5 = load i32, ptr %4, align 8, !tbaa !170
  %6 = icmp sge i32 %2, %5
  %7 = icmp slt i32 %2, 0
  %or.cond.i = or i1 %7, %6
  br i1 %or.cond.i, label %8, label %_ZN16checked_buffer_t11checkoffsetEi.exit

8:                                                ; preds = %3
  %9 = tail call ptr @__cxa_allocate_exception(i64 4) #30
  store i32 4, ptr %9, align 16, !tbaa !20
  tail call void @__cxa_throw(ptr nonnull %9, ptr nonnull @_ZTI17LibRaw_exceptions, ptr null) #31
  unreachable

_ZN16checked_buffer_t11checkoffsetEi.exit:        ; preds = %3
  %10 = tail call noundef i32 @_Z29libraw_tagtype_dataunit_bytesi(i32 noundef %1)
  %11 = add nsw i32 %10, %2
  %12 = load i32, ptr %4, align 8, !tbaa !170
  %13 = icmp sge i32 %11, %12
  %14 = icmp slt i32 %11, 0
  %or.cond.i6 = or i1 %14, %13
  br i1 %or.cond.i6, label %15, label %_ZN16checked_buffer_t11checkoffsetEi.exit7

15:                                               ; preds = %_ZN16checked_buffer_t11checkoffsetEi.exit
  %16 = tail call ptr @__cxa_allocate_exception(i64 4) #30
  store i32 4, ptr %16, align 16, !tbaa !20
  tail call void @__cxa_throw(ptr nonnull %16, ptr nonnull @_ZTI17LibRaw_exceptions, ptr null) #31
  unreachable

_ZN16checked_buffer_t11checkoffsetEi.exit7:       ; preds = %_ZN16checked_buffer_t11checkoffsetEi.exit
  %17 = load i16, ptr %0, align 8, !tbaa !160
  %18 = getelementptr inbounds nuw i8, ptr %0, i64 8
  %19 = load ptr, ptr %18, align 8, !tbaa !169
  %20 = zext nneg i32 %2 to i64
  %21 = getelementptr inbounds nuw i8, ptr %19, i64 %20
  %22 = tail call reassoc nsz arcp contract afn noundef double @_Z22libraw_sgetreal_staticsiPh(i16 noundef signext %17, i32 noundef %1, ptr noundef %21)
  ret double %22
}